; Function Attrs: mustprogress nofree norecurse nosync nounwind willreturn memory(read, inaccessiblemem: none) uwtable
define hidden { ptr, i64 } @_ZNK9CardTable13committed_forE9MemRegion(ptr nocapture noundef nonnull readonly align 8 dereferenceable(88) %0, ptr %1, i64 %2) local_unnamed_addr #4 align 2 {
  %4 = getelementptr inbounds i8, ptr %0, i64 48
  %5 = load ptr, ptr %4, align 8
  %6 = ptrtoint ptr %1 to i64
  %7 = load i32, ptr @_ZN9CardTable11_card_shiftE, align 4
  %8 = zext nneg i32 %7 to i64
  %9 = lshr i64 %6, %8
  %10 = getelementptr inbounds i8, ptr %5, i64 %9
  %11 = getelementptr inbounds i8, ptr %0, i64 24
  %12 = load i64, ptr %11, align 8
  %13 = ptrtoint ptr %10 to i64
  %14 = sub i64 0, %12
  %15 = and i64 %13, %14
  %16 = inttoptr i64 %15 to ptr
  %17 = icmp eq i64 %2, 0
  br i1 %17, label %30, label %18

18:                                               ; preds = %3
  %19 = getelementptr inbounds ptr, ptr %1, i64 %2
  %20 = getelementptr inbounds i8, ptr %19, i64 -8
  %21 = ptrtoint ptr %20 to i64
  %22 = lshr i64 %21, %8
  %23 = getelementptr inbounds i8, ptr %5, i64 %22
  %24 = getelementptr inbounds i8, ptr %23, i64 1
  %25 = ptrtoint ptr %24 to i64
  %26 = add i64 %12, -1
  %27 = add i64 %26, %25
  %28 = and i64 %27, %14
  %29 = inttoptr i64 %28 to ptr
  br label %30

30:                                               ; preds = %3, %18
  %31 = phi ptr [ %29, %18 ], [ %16, %3 ]
  %32 = getelementptr inbounds i8, ptr %0, i64 56
  %33 = load ptr, ptr %32, align 8
  %34 = icmp eq ptr %33, %1
  br i1 %34, label %35, label %46

35:                                               ; preds = %30
  %36 = getelementptr inbounds i8, ptr %0, i64 72
  %37 = load ptr, ptr %36, align 8
  %38 = ptrtoint ptr %37 to i64
  %39 = lshr i64 %38, %8
  %40 = getelementptr inbounds i8, ptr %5, i64 %39
  %41 = ptrtoint ptr %40 to i64
  %42 = and i64 %41, %14
  %43 = inttoptr i64 %42 to ptr
  %44 = icmp ult ptr %31, %43
  %45 = select i1 %44, ptr %31, ptr %43
  br label %46

46:                                               ; preds = %35, %30
  %.0 = phi ptr [ %45, %35 ], [ %31, %30 ]
  %47 = ptrtoint ptr %.0 to i64
  %48 = sub i64 %47, %15
  %49 = lshr i64 %48, 3
  %.fca.0.insert = insertvalue { ptr, i64 } poison, ptr %16, 0
  %.fca.1.insert = insertvalue { ptr, i64 } %.fca.0.insert, i64 %49, 1
  ret { ptr, i64 } %.fca.1.insert
}